; Function Attrs: mustprogress nofree norecurse nosync nounwind willreturn memory(read, inaccessiblemem: none) uwtable
define noundef i64 @_ZN6casadi13hash_sparsityExxRKSt6vectorIxSaIxEES4_(i64 noundef %0, i64 noundef %1, ptr nocapture noundef nonnull readonly align 8 dereferenceable(24) %2, ptr nocapture noundef nonnull readonly align 8 dereferenceable(24) %3) local_unnamed_addr #14 {
  %5 = load ptr, ptr %2, align 8
  %6 = getelementptr inbounds i8, ptr %2, i64 8
  %7 = load ptr, ptr %6, align 8
  %8 = icmp eq ptr %5, %7
  %spec.select.i = select i1 %8, ptr null, ptr %5
  %9 = load ptr, ptr %3, align 8
  %10 = getelementptr inbounds i8, ptr %3, i64 8
  %11 = load ptr, ptr %10, align 8
  %12 = icmp eq ptr %9, %11
  %spec.select.i3 = select i1 %12, ptr null, ptr %9
  %13 = add i64 %0, 2654435769
  %14 = add i64 %1, 2654435769
  %15 = shl i64 %13, 6
  %16 = add i64 %14, %15
  %17 = lshr i64 %13, 2
  %18 = add i64 %16, %17
  %19 = xor i64 %18, %13
  %.not.i.i = icmp eq i64 %1, -1
  br i1 %.not.i.i, label %_ZN6casadi12hash_combineIxEEvRmPKT_m.exit.i, label %.lr.ph.i.i

.lr.ph.i.i:                                       ; preds = %4, %.lr.ph.i.i
  %.05.i.i = phi i64 [ %29, %.lr.ph.i.i ], [ 0, %4 ]
  %20 = phi i64 [ %28, %.lr.ph.i.i ], [ %19, %4 ]
  %21 = getelementptr inbounds i64, ptr %spec.select.i, i64 %.05.i.i
  %22 = load i64, ptr %21, align 8
  %23 = add i64 %22, 2654435769
  %24 = shl i64 %20, 6
  %25 = add i64 %23, %24
  %26 = lshr i64 %20, 2
  %27 = add i64 %25, %26
  %28 = xor i64 %27, %20
  %29 = add nuw nsw i64 %.05.i.i, 1
  %exitcond.not.i.i = icmp eq i64 %.05.i.i, %1
  br i1 %exitcond.not.i.i, label %_ZN6casadi12hash_combineIxEEvRmPKT_m.exit.i, label %.lr.ph.i.i, !llvm.loop !160

_ZN6casadi12hash_combineIxEEvRmPKT_m.exit.i:      ; preds = %.lr.ph.i.i, %4
  %.0.i = phi i64 [ %19, %4 ], [ %28, %.lr.ph.i.i ]
  %30 = getelementptr inbounds i64, ptr %spec.select.i, i64 %1
  %31 = load i64, ptr %30, align 8
  %.not.i6.i = icmp eq i64 %31, 0
  br i1 %.not.i6.i, label %_ZN6casadi13hash_sparsityExxPKxS1_.exit, label %.lr.ph.i9.i

.lr.ph.i9.i:                                      ; preds = %_ZN6casadi12hash_combineIxEEvRmPKT_m.exit.i, %.lr.ph.i9.i
  %.05.i10.i = phi i64 [ %41, %.lr.ph.i9.i ], [ 0, %_ZN6casadi12hash_combineIxEEvRmPKT_m.exit.i ]
  %32 = phi i64 [ %40, %.lr.ph.i9.i ], [ %.0.i, %_ZN6casadi12hash_combineIxEEvRmPKT_m.exit.i ]
  %33 = getelementptr inbounds i64, ptr %spec.select.i3, i64 %.05.i10.i
  %34 = load i64, ptr %33, align 8
  %35 = add i64 %34, 2654435769
  %36 = shl i64 %32, 6
  %37 = add i64 %35, %36
  %38 = lshr i64 %32, 2
  %39 = add i64 %37, %38
  %40 = xor i64 %39, %32
  %41 = add nuw nsw i64 %.05.i10.i, 1
  %exitcond.not.i11.i = icmp eq i64 %41, %31
  br i1 %exitcond.not.i11.i, label %_ZN6casadi13hash_sparsityExxPKxS1_.exit, label %.lr.ph.i9.i, !llvm.loop !160

_ZN6casadi13hash_sparsityExxPKxS1_.exit:          ; preds = %.lr.ph.i9.i, %_ZN6casadi12hash_combineIxEEvRmPKT_m.exit.i
  %.1.i = phi i64 [ %.0.i, %_ZN6casadi12hash_combineIxEEvRmPKT_m.exit.i ], [ %40, %.lr.ph.i9.i ]
  ret i64 %.1.i
}